target datalayout = "e-m:e-p270:32:32-p271:32:32-p272:64:64-i64:64-i128:128-f80:128-n8:16:32:64-S128"
target triple = "x86_64-pc-linux-gnu"

%struct.Fra_Sml_t_ = type { ptr, i32, i32, i32, i32, i32, i32, i32, i32, [0 x i32] }
%struct.Vec_Int_t_ = type { i32, i32, ptr }
%struct.Fra_Man_t_ = type { ptr, ptr, ptr, i32, ptr, i32, ptr, ptr, ptr, i32, ptr, ptr, ptr, ptr, i32, ptr, i64, i64, ptr, ptr, i32, ptr, i32, i32, i32, i32, i32, i32, i32, i32, i32, i32, i32, i32, i32, i32, i32, i32, i32, i32, i32, i64, i64, i64, i64, i64, i64, i64, i64, i64, i64, i64 }
%struct.Fra_Cla_t_ = type { ptr, ptr, ptr, ptr, ptr, ptr, ptr, ptr, ptr, i32, i32, ptr, ptr, ptr, ptr }

; Function Attrs: inlinehint nounwind uwtable
define internal i32 @Aig_WordCountOnes(i32 noundef %0) #2 {
  %2 = alloca i32, align 4
  store i32 %0, ptr %2, align 4, !tbaa !8
  %3 = load i32, ptr %2, align 4, !tbaa !8
  %4 = and i32 %3, 1431655765
  %5 = load i32, ptr %2, align 4, !tbaa !8
  %6 = lshr i32 %5, 1
  %7 = and i32 %6, 1431655765
  %8 = add i32 %4, %7
  store i32 %8, ptr %2, align 4, !tbaa !8
  %9 = load i32, ptr %2, align 4, !tbaa !8
  %10 = and i32 %9, 858993459
  %11 = load i32, ptr %2, align 4, !tbaa !8
  %12 = lshr i32 %11, 2
  %13 = and i32 %12, 858993459
  %14 = add i32 %10, %13
  store i32 %14, ptr %2, align 4, !tbaa !8
  %15 = load i32, ptr %2, align 4, !tbaa !8
  %16 = and i32 %15, 252645135
  %17 = load i32, ptr %2, align 4, !tbaa !8
  %18 = lshr i32 %17, 4
  %19 = and i32 %18, 252645135
  %20 = add i32 %16, %19
  store i32 %20, ptr %2, align 4, !tbaa !8
  %21 = load i32, ptr %2, align 4, !tbaa !8
  %22 = and i32 %21, 16711935
  %23 = load i32, ptr %2, align 4, !tbaa !8
  %24 = lshr i32 %23, 8
  %25 = and i32 %24, 16711935
  %26 = add i32 %22, %25
  store i32 %26, ptr %2, align 4, !tbaa !8
  %27 = load i32, ptr %2, align 4, !tbaa !8
  %28 = and i32 %27, 65535
  %29 = load i32, ptr %2, align 4, !tbaa !8
  %30 = lshr i32 %29, 16
  %31 = add i32 %28, %30
  ret i32 %31
}

; Function Attrs: inlinehint nounwind uwtable
define internal i32 @Fra_SmlCountOnesOne(ptr noundef %0, i32 noundef %1) #2 {
  %3 = alloca ptr, align 8
  %4 = alloca i32, align 4
  %5 = alloca ptr, align 8
  %6 = alloca i32, align 4
  %7 = alloca i32, align 4
  store ptr %0, ptr %3, align 8, !tbaa !3
  store i32 %1, ptr %4, align 4, !tbaa !8
  call void @llvm.lifetime.start.p0(i64 8, ptr %5) #10
  call void @llvm.lifetime.start.p0(i64 4, ptr %6) #10
  call void @llvm.lifetime.start.p0(i64 4, ptr %7) #10
  store i32 0, ptr %7, align 4, !tbaa !8
  %8 = load ptr, ptr %3, align 8, !tbaa !3
  %9 = load i32, ptr %4, align 4, !tbaa !8
  %10 = call ptr @Fra_ObjSim(ptr noundef %8, i32 noundef %9)
  store ptr %10, ptr %5, align 8, !tbaa !10
  %11 = load ptr, ptr %3, align 8, !tbaa !3
  %12 = getelementptr inbounds nuw %struct.Fra_Sml_t_, ptr %11, i32 0, i32 5
  %13 = load i32, ptr %12, align 8, !tbaa !76
  store i32 %13, ptr %6, align 4, !tbaa !8
  br label %14

14:                                               ; preds = %29, %2
  %15 = load i32, ptr %6, align 4, !tbaa !8
  %16 = load ptr, ptr %3, align 8, !tbaa !3
  %17 = getelementptr inbounds nuw %struct.Fra_Sml_t_, ptr %16, i32 0, i32 4
  %18 = load i32, ptr %17, align 4, !tbaa !12
  %19 = icmp slt i32 %15, %18
  br i1 %19, label %20, label %32

20:                                               ; preds = %14
  %21 = load ptr, ptr %5, align 8, !tbaa !10
  %22 = load i32, ptr %6, align 4, !tbaa !8
  %23 = sext i32 %22 to i64
  %24 = getelementptr inbounds i32, ptr %21, i64 %23
  %25 = load i32, ptr %24, align 4, !tbaa !8
  %26 = call i32 @Aig_WordCountOnes(i32 noundef %25)
  %27 = load i32, ptr %7, align 4, !tbaa !8
  %28 = add nsw i32 %27, %26
  store i32 %28, ptr %7, align 4, !tbaa !8
  br label %29

29:                                               ; preds = %20
  %30 = load i32, ptr %6, align 4, !tbaa !8
  %31 = add nsw i32 %30, 1
  store i32 %31, ptr %6, align 4, !tbaa !8
  br label %14, !llvm.loop !104

32:                                               ; preds = %14
  %33 = load i32, ptr %7, align 4, !tbaa !8
  call void @llvm.lifetime.end.p0(i64 4, ptr %7) #10
  call void @llvm.lifetime.end.p0(i64 4, ptr %6) #10
  call void @llvm.lifetime.end.p0(i64 8, ptr %5) #10
  ret i32 %33
}

; Function Attrs: inlinehint nounwind uwtable
define internal void @Sml_NodeSaveNotImpPatterns(ptr noundef %0, i32 noundef %1, i32 noundef %2, ptr noundef %3) #2 {
  %5 = alloca ptr, align 8
  %6 = alloca i32, align 4
  %7 = alloca i32, align 4
  %8 = alloca ptr, align 8
  %9 = alloca ptr, align 8
  %10 = alloca ptr, align 8
  %11 = alloca i32, align 4
  store ptr %0, ptr %5, align 8, !tbaa !3
  store i32 %1, ptr %6, align 4, !tbaa !8
  store i32 %2, ptr %7, align 4, !tbaa !8
  store ptr %3, ptr %8, align 8, !tbaa !10
  call void @llvm.lifetime.start.p0(i64 8, ptr %9) #10
  call void @llvm.lifetime.start.p0(i64 8, ptr %10) #10
  call void @llvm.lifetime.start.p0(i64 4, ptr %11) #10
  %12 = load ptr, ptr %5, align 8, !tbaa !3
  %13 = load i32, ptr %6, align 4, !tbaa !8
  %14 = call ptr @Fra_ObjSim(ptr noundef %12, i32 noundef %13)
  store ptr %14, ptr %9, align 8, !tbaa !10
  %15 = load ptr, ptr %5, align 8, !tbaa !3
  %16 = load i32, ptr %7, align 4, !tbaa !8
  %17 = call ptr @Fra_ObjSim(ptr noundef %15, i32 noundef %16)
  store ptr %17, ptr %10, align 8, !tbaa !10
  %18 = load ptr, ptr %5, align 8, !tbaa !3
  %19 = getelementptr inbounds nuw %struct.Fra_Sml_t_, ptr %18, i32 0, i32 5
  %20 = load i32, ptr %19, align 8, !tbaa !76
  store i32 %20, ptr %11, align 4, !tbaa !8
  br label %21

21:                                               ; preds = %46, %4
  %22 = load i32, ptr %11, align 4, !tbaa !8
  %23 = load ptr, ptr %5, align 8, !tbaa !3
  %24 = getelementptr inbounds nuw %struct.Fra_Sml_t_, ptr %23, i32 0, i32 4
  %25 = load i32, ptr %24, align 4, !tbaa !12
  %26 = icmp slt i32 %22, %25
  br i1 %26, label %27, label %49

27:                                               ; preds = %21
  %28 = load ptr, ptr %9, align 8, !tbaa !10
  %29 = load i32, ptr %11, align 4, !tbaa !8
  %30 = sext i32 %29 to i64
  %31 = getelementptr inbounds i32, ptr %28, i64 %30
  %32 = load i32, ptr %31, align 4, !tbaa !8
  %33 = load ptr, ptr %10, align 8, !tbaa !10
  %34 = load i32, ptr %11, align 4, !tbaa !8
  %35 = sext i32 %34 to i64
  %36 = getelementptr inbounds i32, ptr %33, i64 %35
  %37 = load i32, ptr %36, align 4, !tbaa !8
  %38 = xor i32 %37, -1
  %39 = and i32 %32, %38
  %40 = load ptr, ptr %8, align 8, !tbaa !10
  %41 = load i32, ptr %11, align 4, !tbaa !8
  %42 = sext i32 %41 to i64
  %43 = getelementptr inbounds i32, ptr %40, i64 %42
  %44 = load i32, ptr %43, align 4, !tbaa !8
  %45 = or i32 %44, %39
  store i32 %45, ptr %43, align 4, !tbaa !8
  br label %46

46:                                               ; preds = %27
  %47 = load i32, ptr %11, align 4, !tbaa !8
  %48 = add nsw i32 %47, 1
  store i32 %48, ptr %11, align 4, !tbaa !8
  br label %21, !llvm.loop !103

49:                                               ; preds = %21
  call void @llvm.lifetime.end.p0(i64 4, ptr %11) #10
  call void @llvm.lifetime.end.p0(i64 8, ptr %10) #10
  call void @llvm.lifetime.end.p0(i64 8, ptr %9) #10
  ret void
}

; Function Attrs: inlinehint nounwind uwtable
define internal i32 @Fra_ImpRight(i32 noundef %0) #2 {
  %2 = alloca i32, align 4
  store i32 %0, ptr %2, align 4, !tbaa !8
  %3 = load i32, ptr %2, align 4, !tbaa !8
  %4 = ashr i32 %3, 16
  ret i32 %4
}

; Function Attrs: inlinehint nounwind uwtable
define internal i32 @Fra_ImpLeft(i32 noundef %0) #2 {
  %2 = alloca i32, align 4
  store i32 %0, ptr %2, align 4, !tbaa !8
  %3 = load i32, ptr %2, align 4, !tbaa !8
  %4 = and i32 %3, 65535
  ret i32 %4
}

; Function Attrs: inlinehint nounwind uwtable
define internal i32 @Vec_IntEntry(ptr noundef %0, i32 noundef %1) #2 {
  %3 = alloca ptr, align 8
  %4 = alloca i32, align 4
  store ptr %0, ptr %3, align 8, !tbaa !41
  store i32 %1, ptr %4, align 4, !tbaa !8
  %5 = load ptr, ptr %3, align 8, !tbaa !41
  %6 = getelementptr inbounds nuw %struct.Vec_Int_t_, ptr %5, i32 0, i32 2
  %7 = load ptr, ptr %6, align 8, !tbaa !48
  %8 = load i32, ptr %4, align 4, !tbaa !8
  %9 = sext i32 %8 to i64
  %10 = getelementptr inbounds i32, ptr %7, i64 %9
  %11 = load i32, ptr %10, align 4, !tbaa !8
  ret i32 %11
}

; Function Attrs: inlinehint nounwind uwtable
define internal ptr @Fra_ObjSim(ptr noundef %0, i32 noundef %1) #2 {
  %3 = alloca ptr, align 8
  %4 = alloca i32, align 4
  store ptr %0, ptr %3, align 8, !tbaa !3
  store i32 %1, ptr %4, align 4, !tbaa !8
  %5 = load ptr, ptr %3, align 8, !tbaa !3
  %6 = getelementptr inbounds nuw %struct.Fra_Sml_t_, ptr %5, i32 0, i32 9
  %7 = getelementptr inbounds [0 x i32], ptr %6, i64 0, i64 0
  %8 = load ptr, ptr %3, align 8, !tbaa !3
  %9 = getelementptr inbounds nuw %struct.Fra_Sml_t_, ptr %8, i32 0, i32 4
  %10 = load i32, ptr %9, align 4, !tbaa !12
  %11 = load i32, ptr %4, align 4, !tbaa !8
  %12 = mul nsw i32 %10, %11
  %13 = sext i32 %12 to i64
  %14 = getelementptr inbounds i32, ptr %7, i64 %13
  ret ptr %14
}

; Function Attrs: inlinehint nounwind uwtable
define internal i32 @Vec_IntSize(ptr noundef %0) #2 {
  %2 = alloca ptr, align 8
  store ptr %0, ptr %2, align 8, !tbaa !41
  %3 = load ptr, ptr %2, align 8, !tbaa !41
  %4 = getelementptr inbounds nuw %struct.Vec_Int_t_, ptr %3, i32 0, i32 1
  %5 = load i32, ptr %4, align 4, !tbaa !45
  ret i32 %5
}

; Function Attrs: nounwind uwtable
define double @Fra_ImpComputeStateSpaceRatio(ptr noundef %0) #0 {
  %2 = alloca double, align 8
  %3 = alloca ptr, align 8
  %4 = alloca i32, align 4
  %5 = alloca ptr, align 8
  %6 = alloca ptr, align 8
  %7 = alloca double, align 8
  %8 = alloca i32, align 4
  %9 = alloca i32, align 4
  %10 = alloca i32, align 4
  %11 = alloca i32, align 4
  %12 = alloca i32, align 4
  store ptr %0, ptr %3, align 8, !tbaa !53
  call void @llvm.lifetime.start.p0(i64 4, ptr %4) #10
  store i32 64, ptr %4, align 4, !tbaa !8
  call void @llvm.lifetime.start.p0(i64 8, ptr %5) #10
  call void @llvm.lifetime.start.p0(i64 8, ptr %6) #10
  call void @llvm.lifetime.start.p0(i64 8, ptr %7) #10
  store double 0.000000e+00, ptr %7, align 8, !tbaa !100
  call void @llvm.lifetime.start.p0(i64 4, ptr %8) #10
  call void @llvm.lifetime.start.p0(i64 4, ptr %9) #10
  call void @llvm.lifetime.start.p0(i64 4, ptr %10) #10
  call void @llvm.lifetime.start.p0(i64 4, ptr %11) #10
  %13 = load ptr, ptr %3, align 8, !tbaa !53
  %14 = getelementptr inbounds nuw %struct.Fra_Man_t_, ptr %13, i32 0, i32 6
  %15 = load ptr, ptr %14, align 8, !tbaa !94
  %16 = getelementptr inbounds nuw %struct.Fra_Cla_t_, ptr %15, i32 0, i32 11
  %17 = load ptr, ptr %16, align 8, !tbaa !101
  %18 = icmp eq ptr %17, null
  br i1 %18, label %27, label %19

19:                                               ; preds = %1
  %20 = load ptr, ptr %3, align 8, !tbaa !53
  %21 = getelementptr inbounds nuw %struct.Fra_Man_t_, ptr %20, i32 0, i32 6
  %22 = load ptr, ptr %21, align 8, !tbaa !94
  %23 = getelementptr inbounds nuw %struct.Fra_Cla_t_, ptr %22, i32 0, i32 11
  %24 = load ptr, ptr %23, align 8, !tbaa !101
  %25 = call i32 @Vec_IntSize(ptr noundef %24)
  %26 = icmp eq i32 %25, 0
  br i1 %26, label %27, label %29

27:                                               ; preds = %19, %1
  %28 = load double, ptr %7, align 8, !tbaa !100
  store double %28, ptr %2, align 8
  store i32 1, ptr %12, align 4
  br label %85

29:                                               ; preds = %19
  %30 = load ptr, ptr %3, align 8, !tbaa !53
  %31 = getelementptr inbounds nuw %struct.Fra_Man_t_, ptr %30, i32 0, i32 1
  %32 = load ptr, ptr %31, align 8, !tbaa !56
  %33 = load i32, ptr %4, align 4, !tbaa !8
  %34 = call ptr @Fra_SmlSimulateComb(ptr noundef %32, i32 noundef %33, i32 noundef 0)
  store ptr %34, ptr %5, align 8, !tbaa !3
  %35 = load ptr, ptr %5, align 8, !tbaa !3
  %36 = call ptr @Fra_ObjSim(ptr noundef %35, i32 noundef 0)
  store ptr %36, ptr %6, align 8, !tbaa !10
  store i32 0, ptr %11, align 4, !tbaa !8
  br label %37

37:                                               ; preds = %65, %29
  %38 = load i32, ptr %11, align 4, !tbaa !8
  %39 = load ptr, ptr %3, align 8, !tbaa !53
  %40 = getelementptr inbounds nuw %struct.Fra_Man_t_, ptr %39, i32 0, i32 6
  %41 = load ptr, ptr %40, align 8, !tbaa !94
  %42 = getelementptr inbounds nuw %struct.Fra_Cla_t_, ptr %41, i32 0, i32 11
  %43 = load ptr, ptr %42, align 8, !tbaa !101
  %44 = call i32 @Vec_IntSize(ptr noundef %43)
  %45 = icmp slt i32 %38, %44
  br i1 %45, label %46, label %54

46:                                               ; preds = %37
  %47 = load ptr, ptr %3, align 8, !tbaa !53
  %48 = getelementptr inbounds nuw %struct.Fra_Man_t_, ptr %47, i32 0, i32 6
  %49 = load ptr, ptr %48, align 8, !tbaa !94
  %50 = getelementptr inbounds nuw %struct.Fra_Cla_t_, ptr %49, i32 0, i32 11
  %51 = load ptr, ptr %50, align 8, !tbaa !101
  %52 = load i32, ptr %11, align 4, !tbaa !8
  %53 = call i32 @Vec_IntEntry(ptr noundef %51, i32 noundef %52)
  store i32 %53, ptr %10, align 4, !tbaa !8
  br label %54

54:                                               ; preds = %46, %37
  %55 = phi i1 [ false, %37 ], [ true, %46 ]
  br i1 %55, label %56, label %68

56:                                               ; preds = %54
  %57 = load i32, ptr %10, align 4, !tbaa !8
  %58 = call i32 @Fra_ImpLeft(i32 noundef %57)
  store i32 %58, ptr %8, align 4, !tbaa !8
  %59 = load i32, ptr %10, align 4, !tbaa !8
  %60 = call i32 @Fra_ImpRight(i32 noundef %59)
  store i32 %60, ptr %9, align 4, !tbaa !8
  %61 = load ptr, ptr %5, align 8, !tbaa !3
  %62 = load i32, ptr %8, align 4, !tbaa !8
  %63 = load i32, ptr %9, align 4, !tbaa !8
  %64 = load ptr, ptr %6, align 8, !tbaa !10
  call void @Sml_NodeSaveNotImpPatterns(ptr noundef %61, i32 noundef %62, i32 noundef %63, ptr noundef %64)
  br label %65

65:                                               ; preds = %56
  %66 = load i32, ptr %11, align 4, !tbaa !8
  %67 = add nsw i32 %66, 1
  store i32 %67, ptr %11, align 4, !tbaa !8
  br label %37, !llvm.loop !102

68:                                               ; preds = %54
  %69 = load ptr, ptr %5, align 8, !tbaa !3
  %70 = call i32 @Fra_SmlCountOnesOne(ptr noundef %69, i32 noundef 0)
  %71 = sitofp i32 %70 to double
  %72 = fmul double 1.000000e+02, %71
  %73 = load ptr, ptr %5, align 8, !tbaa !3
  %74 = getelementptr inbounds nuw %struct.Fra_Sml_t_, ptr %73, i32 0, i32 4
  %75 = load i32, ptr %74, align 4, !tbaa !12
  %76 = load ptr, ptr %5, align 8, !tbaa !3
  %77 = getelementptr inbounds nuw %struct.Fra_Sml_t_, ptr %76, i32 0, i32 5
  %78 = load i32, ptr %77, align 8, !tbaa !76
  %79 = sub nsw i32 %75, %78
  %80 = mul nsw i32 32, %79
  %81 = sitofp i32 %80 to double
  %82 = fdiv double %72, %81
  store double %82, ptr %7, align 8, !tbaa !100
  %83 = load ptr, ptr %5, align 8, !tbaa !3
  call void @Fra_SmlStop(ptr noundef %83)
  %84 = load double, ptr %7, align 8, !tbaa !100
  store double %84, ptr %2, align 8
  store i32 1, ptr %12, align 4
  br label %85

85:                                               ; preds = %68, %27
  call void @llvm.lifetime.end.p0(i64 4, ptr %11) #10
  call void @llvm.lifetime.end.p0(i64 4, ptr %10) #10
  call void @llvm.lifetime.end.p0(i64 4, ptr %9) #10
  call void @llvm.lifetime.end.p0(i64 4, ptr %8) #10
  call void @llvm.lifetime.end.p0(i64 8, ptr %7) #10
  call void @llvm.lifetime.end.p0(i64 8, ptr %6) #10
  call void @llvm.lifetime.end.p0(i64 8, ptr %5) #10
  call void @llvm.lifetime.end.p0(i64 4, ptr %4) #10
  %86 = load double, ptr %2, align 8
  ret double %86
}