; Function Attrs: nounwind uwtable
define double @Fra_ImpComputeStateSpaceRatio(ptr noundef readonly captures(none) %0) local_unnamed_addr #0 {
  %2 = getelementptr inbounds nuw i8, ptr %0, i64 48
  %3 = load ptr, ptr %2, align 8, !tbaa !91
  %4 = getelementptr inbounds nuw i8, ptr %3, i64 80
  %5 = load ptr, ptr %4, align 8, !tbaa !97
  %6 = icmp eq ptr %5, null
  br i1 %6, label %87, label %7

7:                                                ; preds = %1
  %8 = getelementptr i8, ptr %5, i64 4
  %.val24 = load i32, ptr %8, align 4, !tbaa !38
  %9 = icmp eq i32 %.val24, 0
  br i1 %9, label %87, label %10

10:                                               ; preds = %7
  %11 = getelementptr inbounds nuw i8, ptr %0, i64 8
  %12 = load ptr, ptr %11, align 8, !tbaa !50
  %13 = tail call ptr @Fra_SmlSimulateComb(ptr noundef %12, i32 noundef 64, i32 noundef 0) #20
  %14 = getelementptr inbounds nuw i8, ptr %13, i64 40
  %15 = getelementptr inbounds nuw i8, ptr %13, i64 20
  %16 = load ptr, ptr %2, align 8, !tbaa !91
  %17 = getelementptr inbounds nuw i8, ptr %16, i64 80
  %18 = load ptr, ptr %17, align 8, !tbaa !97
  %19 = getelementptr i8, ptr %18, i64 4
  %.val30 = load i32, ptr %19, align 4, !tbaa !38
  %20 = icmp sgt i32 %.val30, 0
  %.pre = load i32, ptr %15, align 4, !tbaa !27
  br i1 %20, label %.lr.ph, label %.critedge

.lr.ph:                                           ; preds = %10
  %21 = getelementptr i8, ptr %18, i64 8
  %.val25 = load ptr, ptr %21, align 8, !tbaa !43
  %22 = getelementptr inbounds nuw i8, ptr %13, i64 24
  %23 = load i32, ptr %22, align 8, !tbaa !28
  %24 = icmp slt i32 %23, %.pre
  br i1 %24, label %.lr.ph.split, label %.critedge

.lr.ph.split:                                     ; preds = %.lr.ph, %Sml_NodeSaveNotImpPatterns.exit
  %.val34 = phi i32 [ %.val, %Sml_NodeSaveNotImpPatterns.exit ], [ %.val30, %.lr.ph ]
  %25 = phi i32 [ %51, %Sml_NodeSaveNotImpPatterns.exit ], [ %.pre, %.lr.ph ]
  %indvars.iv = phi i64 [ %indvars.iv.next, %Sml_NodeSaveNotImpPatterns.exit ], [ 0, %.lr.ph ]
  %26 = getelementptr inbounds nuw i32, ptr %.val25, i64 %indvars.iv
  %27 = load i32, ptr %26, align 4, !tbaa !29
  %28 = and i32 %27, 65535
  %29 = ashr i32 %27, 16
  %30 = mul nsw i32 %25, %28
  %31 = sext i32 %30 to i64
  %32 = getelementptr inbounds i32, ptr %14, i64 %31
  %33 = mul nsw i32 %25, %29
  %34 = sext i32 %33 to i64
  %35 = getelementptr inbounds i32, ptr %14, i64 %34
  %36 = load i32, ptr %22, align 8, !tbaa !28
  %37 = icmp slt i32 %36, %25
  br i1 %37, label %.lr.ph.preheader.i, label %Sml_NodeSaveNotImpPatterns.exit

.lr.ph.preheader.i:                               ; preds = %.lr.ph.split
  %38 = sext i32 %36 to i64
  br label %.lr.ph.i

.lr.ph.i:                                         ; preds = %.lr.ph.i, %.lr.ph.preheader.i
  %indvars.iv.i = phi i64 [ %38, %.lr.ph.preheader.i ], [ %indvars.iv.next.i, %.lr.ph.i ]
  %39 = getelementptr inbounds i32, ptr %32, i64 %indvars.iv.i
  %40 = load i32, ptr %39, align 4, !tbaa !29
  %41 = getelementptr inbounds i32, ptr %35, i64 %indvars.iv.i
  %42 = load i32, ptr %41, align 4, !tbaa !29
  %43 = xor i32 %42, -1
  %44 = and i32 %40, %43
  %45 = getelementptr inbounds i32, ptr %14, i64 %indvars.iv.i
  %46 = load i32, ptr %45, align 4, !tbaa !29
  %47 = or i32 %46, %44
  store i32 %47, ptr %45, align 4, !tbaa !29
  %indvars.iv.next.i = add nsw i64 %indvars.iv.i, 1
  %48 = load i32, ptr %15, align 4, !tbaa !27
  %49 = sext i32 %48 to i64
  %50 = icmp slt i64 %indvars.iv.next.i, %49
  br i1 %50, label %.lr.ph.i, label %Sml_NodeSaveNotImpPatterns.exit.loopexit, !llvm.loop !98

Sml_NodeSaveNotImpPatterns.exit.loopexit:         ; preds = %.lr.ph.i
  %.val.pre = load i32, ptr %19, align 4, !tbaa !38
  br label %Sml_NodeSaveNotImpPatterns.exit

Sml_NodeSaveNotImpPatterns.exit:                  ; preds = %Sml_NodeSaveNotImpPatterns.exit.loopexit, %.lr.ph.split
  %.val = phi i32 [ %.val.pre, %Sml_NodeSaveNotImpPatterns.exit.loopexit ], [ %.val34, %.lr.ph.split ]
  %51 = phi i32 [ %48, %Sml_NodeSaveNotImpPatterns.exit.loopexit ], [ %25, %.lr.ph.split ]
  %indvars.iv.next = add nuw nsw i64 %indvars.iv, 1
  %52 = sext i32 %.val to i64
  %53 = icmp slt i64 %indvars.iv.next, %52
  br i1 %53, label %.lr.ph.split, label %.critedge, !llvm.loop !99

.critedge:                                        ; preds = %Sml_NodeSaveNotImpPatterns.exit, %.lr.ph, %10
  %54 = phi i32 [ %.pre, %10 ], [ %.pre, %.lr.ph ], [ %51, %Sml_NodeSaveNotImpPatterns.exit ]
  %55 = getelementptr inbounds nuw i8, ptr %13, i64 24
  %56 = load i32, ptr %55, align 8, !tbaa !28
  %57 = icmp slt i32 %56, %54
  br i1 %57, label %.lr.ph.preheader.i26, label %Fra_SmlCountOnesOne.exit

.lr.ph.preheader.i26:                             ; preds = %.critedge
  %58 = sext i32 %56 to i64
  %wide.trip.count.i = sext i32 %54 to i64
  br label %.lr.ph.i27

.lr.ph.i27:                                       ; preds = %.lr.ph.i27, %.lr.ph.preheader.i26
  %indvars.iv.i28 = phi i64 [ %58, %.lr.ph.preheader.i26 ], [ %indvars.iv.next.i29, %.lr.ph.i27 ]
  %.011.i = phi i32 [ 0, %.lr.ph.preheader.i26 ], [ %80, %.lr.ph.i27 ]
  %59 = getelementptr inbounds i32, ptr %14, i64 %indvars.iv.i28
  %60 = load i32, ptr %59, align 4, !tbaa !29
  %61 = and i32 %60, 1431655765
  %62 = lshr i32 %60, 1
  %63 = and i32 %62, 1431655765
  %64 = add nuw i32 %63, %61
  %65 = and i32 %64, 858993459
  %66 = lshr i32 %64, 2
  %67 = and i32 %66, 858993459
  %68 = add nuw nsw i32 %67, %65
  %69 = and i32 %68, 117901063
  %70 = lshr i32 %68, 4
  %71 = and i32 %70, 117901063
  %72 = add nuw nsw i32 %71, %69
  %73 = and i32 %72, 983055
  %74 = lshr i32 %72, 8
  %75 = and i32 %74, 983055
  %76 = add nuw nsw i32 %75, %73
  %77 = and i32 %76, 31
  %78 = lshr i32 %76, 16
  %79 = add nuw nsw i32 %78, %.011.i
  %80 = add nuw nsw i32 %79, %77
  %indvars.iv.next.i29 = add nsw i64 %indvars.iv.i28, 1
  %exitcond.not.i = icmp eq i64 %indvars.iv.next.i29, %wide.trip.count.i
  br i1 %exitcond.not.i, label %Fra_SmlCountOnesOne.exit.loopexit, label %.lr.ph.i27, !llvm.loop !30

Fra_SmlCountOnesOne.exit.loopexit:                ; preds = %.lr.ph.i27
  %81 = sitofp i32 %80 to double
  %82 = fmul double %81, 1.000000e+02
  br label %Fra_SmlCountOnesOne.exit

Fra_SmlCountOnesOne.exit:                         ; preds = %Fra_SmlCountOnesOne.exit.loopexit, %.critedge
  %.0.lcssa.i = phi double [ 0.000000e+00, %.critedge ], [ %82, %Fra_SmlCountOnesOne.exit.loopexit ]
  %83 = sub nsw i32 %54, %56
  %84 = shl nsw i32 %83, 5
  %85 = sitofp i32 %84 to double
  %86 = fdiv double %.0.lcssa.i, %85
  tail call void @Fra_SmlStop(ptr noundef nonnull %13) #20
  br label %87

87:                                               ; preds = %1, %7, %Fra_SmlCountOnesOne.exit
  %.022 = phi double [ %86, %Fra_SmlCountOnesOne.exit ], [ 0.000000e+00, %7 ], [ 0.000000e+00, %1 ]
  ret double %.022
}